target datalayout = "e-m:e-p270:32:32-p271:32:32-p272:64:64-i64:64-i128:128-f80:128-n8:16:32:64-S128"
target triple = "x86_64-pc-linux-gnu"

%struct._object = type { %union.anon, ptr }
%union.anon = type { i64 }
%struct.PyBytesObject = type { %struct.PyVarObject, i64, [1 x i8] }
%struct.PyVarObject = type { %struct._object, i64 }
%struct.PicklerObject = type { %struct._object, ptr, ptr, ptr, ptr, ptr, ptr, ptr, i64, i64, i32, i32, i32, i64, i64, i32, i32, i32, ptr, ptr }

; Function Attrs: inlinehint nounwind uwtable
define internal ptr @PyBytes_AS_STRING(ptr noundef %0) #3 {
  %2 = alloca ptr, align 8
  store ptr %0, ptr %2, align 8, !tbaa !3
  %3 = load ptr, ptr %2, align 8, !tbaa !3
  %4 = getelementptr inbounds nuw %struct.PyBytesObject, ptr %3, i32 0, i32 2
  %5 = getelementptr inbounds [1 x i8], ptr %4, i64 0, i64 0
  ret ptr %5
}

; Function Attrs: nounwind uwtable
define internal i64 @_Pickler_Write(ptr noundef %0, ptr noundef %1, i64 noundef %2) #0 {
  %4 = alloca i64, align 8
  %5 = alloca ptr, align 8
  %6 = alloca ptr, align 8
  %7 = alloca i64, align 8
  %8 = alloca i64, align 8
  %9 = alloca i64, align 8
  %10 = alloca i64, align 8
  %11 = alloca ptr, align 8
  %12 = alloca i32, align 4
  %13 = alloca i32, align 4
  %14 = alloca i64, align 8
  store ptr %0, ptr %5, align 8, !tbaa !38
  store ptr %1, ptr %6, align 8, !tbaa !36
  store i64 %2, ptr %7, align 8, !tbaa !34
  call void @llvm.lifetime.start.p0(i64 8, ptr %8) #10
  call void @llvm.lifetime.start.p0(i64 8, ptr %9) #10
  call void @llvm.lifetime.start.p0(i64 8, ptr %10) #10
  call void @llvm.lifetime.start.p0(i64 8, ptr %11) #10
  call void @llvm.lifetime.start.p0(i64 4, ptr %12) #10
  %15 = load ptr, ptr %5, align 8, !tbaa !38
  %16 = getelementptr inbounds nuw %struct.PicklerObject, ptr %15, i32 0, i32 12
  %17 = load i32, ptr %16, align 8, !tbaa !55
  %18 = icmp ne i32 %17, 0
  br i1 %18, label %19, label %24

19:                                               ; preds = %3
  %20 = load ptr, ptr %5, align 8, !tbaa !38
  %21 = getelementptr inbounds nuw %struct.PicklerObject, ptr %20, i32 0, i32 13
  %22 = load i64, ptr %21, align 8, !tbaa !56
  %23 = icmp eq i64 %22, -1
  br label %24

24:                                               ; preds = %19, %3
  %25 = phi i1 [ false, %3 ], [ %23, %19 ]
  %26 = zext i1 %25 to i32
  store i32 %26, ptr %12, align 4, !tbaa !12
  %27 = load i32, ptr %12, align 4, !tbaa !12
  %28 = icmp ne i32 %27, 0
  br i1 %28, label %29, label %32

29:                                               ; preds = %24
  %30 = load i64, ptr %7, align 8, !tbaa !34
  %31 = add i64 %30, 9
  store i64 %31, ptr %9, align 8, !tbaa !34
  br label %34

32:                                               ; preds = %24
  %33 = load i64, ptr %7, align 8, !tbaa !34
  store i64 %33, ptr %9, align 8, !tbaa !34
  br label %34

34:                                               ; preds = %32, %29
  %35 = load ptr, ptr %5, align 8, !tbaa !38
  %36 = getelementptr inbounds nuw %struct.PicklerObject, ptr %35, i32 0, i32 8
  %37 = load i64, ptr %36, align 8, !tbaa !51
  %38 = load i64, ptr %9, align 8, !tbaa !34
  %39 = add i64 %37, %38
  store i64 %39, ptr %10, align 8, !tbaa !34
  %40 = load i64, ptr %10, align 8, !tbaa !34
  %41 = load ptr, ptr %5, align 8, !tbaa !38
  %42 = getelementptr inbounds nuw %struct.PicklerObject, ptr %41, i32 0, i32 9
  %43 = load i64, ptr %42, align 8, !tbaa !52
  %44 = icmp sgt i64 %40, %43
  br i1 %44, label %45, label %73

45:                                               ; preds = %34
  %46 = load ptr, ptr %5, align 8, !tbaa !38
  %47 = getelementptr inbounds nuw %struct.PicklerObject, ptr %46, i32 0, i32 8
  %48 = load i64, ptr %47, align 8, !tbaa !51
  %49 = load i64, ptr %9, align 8, !tbaa !34
  %50 = sub i64 4611686018427387903, %49
  %51 = icmp sge i64 %48, %50
  br i1 %51, label %52, label %54

52:                                               ; preds = %45
  %53 = call ptr @PyErr_NoMemory()
  store i64 -1, ptr %4, align 8
  store i32 1, ptr %13, align 4
  br label %143

54:                                               ; preds = %45
  %55 = load ptr, ptr %5, align 8, !tbaa !38
  %56 = getelementptr inbounds nuw %struct.PicklerObject, ptr %55, i32 0, i32 8
  %57 = load i64, ptr %56, align 8, !tbaa !51
  %58 = load i64, ptr %9, align 8, !tbaa !34
  %59 = add i64 %57, %58
  %60 = sdiv i64 %59, 2
  %61 = mul i64 %60, 3
  %62 = load ptr, ptr %5, align 8, !tbaa !38
  %63 = getelementptr inbounds nuw %struct.PicklerObject, ptr %62, i32 0, i32 9
  store i64 %61, ptr %63, align 8, !tbaa !52
  %64 = load ptr, ptr %5, align 8, !tbaa !38
  %65 = getelementptr inbounds nuw %struct.PicklerObject, ptr %64, i32 0, i32 7
  %66 = load ptr, ptr %5, align 8, !tbaa !38
  %67 = getelementptr inbounds nuw %struct.PicklerObject, ptr %66, i32 0, i32 9
  %68 = load i64, ptr %67, align 8, !tbaa !52
  %69 = call i32 @_PyBytes_Resize(ptr noundef %65, i64 noundef %68)
  %70 = icmp slt i32 %69, 0
  br i1 %70, label %71, label %72

71:                                               ; preds = %54
  store i64 -1, ptr %4, align 8
  store i32 1, ptr %13, align 4
  br label %143

72:                                               ; preds = %54
  br label %73

73:                                               ; preds = %72, %34
  %74 = load ptr, ptr %5, align 8, !tbaa !38
  %75 = getelementptr inbounds nuw %struct.PicklerObject, ptr %74, i32 0, i32 7
  %76 = load ptr, ptr %75, align 8, !tbaa !50
  %77 = call ptr @PyBytes_AS_STRING(ptr noundef %76)
  store ptr %77, ptr %11, align 8, !tbaa !36
  %78 = load i32, ptr %12, align 4, !tbaa !12
  %79 = icmp ne i32 %78, 0
  br i1 %79, label %80, label %104

80:                                               ; preds = %73
  call void @llvm.lifetime.start.p0(i64 8, ptr %14) #10
  %81 = load ptr, ptr %5, align 8, !tbaa !38
  %82 = getelementptr inbounds nuw %struct.PicklerObject, ptr %81, i32 0, i32 8
  %83 = load i64, ptr %82, align 8, !tbaa !51
  store i64 %83, ptr %14, align 8, !tbaa !34
  %84 = load i64, ptr %14, align 8, !tbaa !34
  %85 = load ptr, ptr %5, align 8, !tbaa !38
  %86 = getelementptr inbounds nuw %struct.PicklerObject, ptr %85, i32 0, i32 13
  store i64 %84, ptr %86, align 8, !tbaa !56
  store i64 0, ptr %8, align 8, !tbaa !34
  br label %87

87:                                               ; preds = %96, %80
  %88 = load i64, ptr %8, align 8, !tbaa !34
  %89 = icmp slt i64 %88, 9
  br i1 %89, label %90, label %99

90:                                               ; preds = %87
  %91 = load ptr, ptr %11, align 8, !tbaa !36
  %92 = load i64, ptr %14, align 8, !tbaa !34
  %93 = load i64, ptr %8, align 8, !tbaa !34
  %94 = add i64 %92, %93
  %95 = getelementptr i8, ptr %91, i64 %94
  store i8 -2, ptr %95, align 1, !tbaa !63
  br label %96

96:                                               ; preds = %90
  %97 = load i64, ptr %8, align 8, !tbaa !34
  %98 = add i64 %97, 1
  store i64 %98, ptr %8, align 8, !tbaa !34
  br label %87, !llvm.loop !80

99:                                               ; preds = %87
  %100 = load ptr, ptr %5, align 8, !tbaa !38
  %101 = getelementptr inbounds nuw %struct.PicklerObject, ptr %100, i32 0, i32 8
  %102 = load i64, ptr %101, align 8, !tbaa !51
  %103 = add i64 %102, 9
  store i64 %103, ptr %101, align 8, !tbaa !51
  call void @llvm.lifetime.end.p0(i64 8, ptr %14) #10
  br label %104

104:                                              ; preds = %99, %73
  %105 = load i64, ptr %7, align 8, !tbaa !34
  %106 = icmp slt i64 %105, 8
  br i1 %106, label %107, label %128

107:                                              ; preds = %104
  store i64 0, ptr %8, align 8, !tbaa !34
  br label %108

108:                                              ; preds = %124, %107
  %109 = load i64, ptr %8, align 8, !tbaa !34
  %110 = load i64, ptr %7, align 8, !tbaa !34
  %111 = icmp slt i64 %109, %110
  br i1 %111, label %112, label %127

112:                                              ; preds = %108
  %113 = load ptr, ptr %6, align 8, !tbaa !36
  %114 = load i64, ptr %8, align 8, !tbaa !34
  %115 = getelementptr i8, ptr %113, i64 %114
  %116 = load i8, ptr %115, align 1, !tbaa !63
  %117 = load ptr, ptr %11, align 8, !tbaa !36
  %118 = load ptr, ptr %5, align 8, !tbaa !38
  %119 = getelementptr inbounds nuw %struct.PicklerObject, ptr %118, i32 0, i32 8
  %120 = load i64, ptr %119, align 8, !tbaa !51
  %121 = load i64, ptr %8, align 8, !tbaa !34
  %122 = add i64 %120, %121
  %123 = getelementptr i8, ptr %117, i64 %122
  store i8 %116, ptr %123, align 1, !tbaa !63
  br label %124

124:                                              ; preds = %112
  %125 = load i64, ptr %8, align 8, !tbaa !34
  %126 = add i64 %125, 1
  store i64 %126, ptr %8, align 8, !tbaa !34
  br label %108, !llvm.loop !82

127:                                              ; preds = %108
  br label %136

128:                                              ; preds = %104
  %129 = load ptr, ptr %11, align 8, !tbaa !36
  %130 = load ptr, ptr %5, align 8, !tbaa !38
  %131 = getelementptr inbounds nuw %struct.PicklerObject, ptr %130, i32 0, i32 8
  %132 = load i64, ptr %131, align 8, !tbaa !51
  %133 = getelementptr i8, ptr %129, i64 %132
  %134 = load ptr, ptr %6, align 8, !tbaa !36
  %135 = load i64, ptr %7, align 8, !tbaa !34
  call void @llvm.memcpy.p0.p0.i64(ptr align 1 %133, ptr align 1 %134, i64 %135, i1 false)
  br label %136

136:                                              ; preds = %128, %127
  %137 = load i64, ptr %7, align 8, !tbaa !34
  %138 = load ptr, ptr %5, align 8, !tbaa !38
  %139 = getelementptr inbounds nuw %struct.PicklerObject, ptr %138, i32 0, i32 8
  %140 = load i64, ptr %139, align 8, !tbaa !51
  %141 = add i64 %140, %137
  store i64 %141, ptr %139, align 8, !tbaa !51
  %142 = load i64, ptr %7, align 8, !tbaa !34
  store i64 %142, ptr %4, align 8
  store i32 1, ptr %13, align 4
  br label %143

143:                                              ; preds = %136, %71, %52
  call void @llvm.lifetime.end.p0(i64 4, ptr %12) #10
  call void @llvm.lifetime.end.p0(i64 8, ptr %11) #10
  call void @llvm.lifetime.end.p0(i64 8, ptr %10) #10
  call void @llvm.lifetime.end.p0(i64 8, ptr %9) #10
  call void @llvm.lifetime.end.p0(i64 8, ptr %8) #10
  %144 = load i64, ptr %4, align 8
  ret i64 %144
}