; Function Attrs: nounwind uwtable
define internal fastcc noundef i64 @_Pickler_Write(ptr noundef %0, ptr noundef readonly captures(none) %1, i64 noundef %2) unnamed_addr #0 {
  %4 = getelementptr inbounds nuw i8, ptr %0, i64 96
  %5 = load i32, ptr %4, align 8, !tbaa !45
  %.not = icmp eq i32 %5, 0
  br i1 %.not, label %.thread, label %6

6:                                                ; preds = %3
  %7 = getelementptr inbounds nuw i8, ptr %0, i64 104
  %8 = load i64, ptr %7, align 8, !tbaa !46
  %.fr = freeze i64 %8
  %9 = icmp eq i64 %.fr, -1
  %10 = add i64 %2, 9
  %spec.select = select i1 %9, i64 %10, i64 %2
  br label %.thread

.thread:                                          ; preds = %6, %3
  %11 = phi i1 [ false, %3 ], [ %9, %6 ]
  %12 = phi i64 [ %2, %3 ], [ %spec.select, %6 ]
  %13 = getelementptr inbounds nuw i8, ptr %0, i64 72
  %14 = load i64, ptr %13, align 8, !tbaa !47
  %15 = add i64 %14, %12
  %16 = getelementptr inbounds nuw i8, ptr %0, i64 80
  %17 = load i64, ptr %16, align 8, !tbaa !79
  %18 = icmp sgt i64 %15, %17
  br i1 %18, label %19, label %29

19:                                               ; preds = %.thread
  %20 = sub i64 4611686018427387903, %12
  %.not48 = icmp slt i64 %14, %20
  br i1 %.not48, label %23, label %21

21:                                               ; preds = %19
  %22 = tail call ptr @PyErr_NoMemory() #13
  br label %53

23:                                               ; preds = %19
  %24 = sdiv i64 %15, 2
  %25 = mul i64 %24, 3
  store i64 %25, ptr %16, align 8, !tbaa !79
  %26 = getelementptr inbounds nuw i8, ptr %0, i64 64
  %27 = tail call i32 @_PyBytes_Resize(ptr noundef nonnull %26, i64 noundef %25) #13
  %28 = icmp slt i32 %27, 0
  br i1 %28, label %53, label %29

29:                                               ; preds = %23, %.thread
  %30 = getelementptr inbounds nuw i8, ptr %0, i64 64
  %31 = load ptr, ptr %30, align 8, !tbaa !44
  %32 = getelementptr inbounds nuw i8, ptr %31, i64 32
  br i1 %11, label %33, label %39

33:                                               ; preds = %29
  %34 = load i64, ptr %13, align 8, !tbaa !47
  %35 = getelementptr inbounds nuw i8, ptr %0, i64 104
  store i64 %34, ptr %35, align 8, !tbaa !46
  %36 = getelementptr i8, ptr %32, i64 %34
  tail call void @llvm.memset.p0.i64(ptr noundef nonnull align 1 dereferenceable(9) %36, i8 -2, i64 9, i1 false), !tbaa !42
  %37 = load i64, ptr %13, align 8, !tbaa !47
  %38 = add i64 %37, 9
  store i64 %38, ptr %13, align 8, !tbaa !47
  br label %39

39:                                               ; preds = %33, %29
  %40 = icmp slt i64 %2, 8
  br i1 %40, label %.preheader, label %48

.preheader:                                       ; preds = %39
  %41 = icmp sgt i64 %2, 0
  br i1 %41, label %.lr.ph, label %.loopexit

.lr.ph:                                           ; preds = %.preheader, %.lr.ph
  %.151 = phi i64 [ %47, %.lr.ph ], [ 0, %.preheader ]
  %42 = getelementptr i8, ptr %1, i64 %.151
  %43 = load i8, ptr %42, align 1, !tbaa !42
  %44 = load i64, ptr %13, align 8, !tbaa !47
  %45 = getelementptr i8, ptr %32, i64 %44
  %46 = getelementptr i8, ptr %45, i64 %.151
  store i8 %43, ptr %46, align 1, !tbaa !42
  %47 = add nuw nsw i64 %.151, 1
  %exitcond.not = icmp eq i64 %47, %2
  br i1 %exitcond.not, label %.loopexit, label %.lr.ph, !llvm.loop !86

48:                                               ; preds = %39
  %49 = load i64, ptr %13, align 8, !tbaa !47
  %50 = getelementptr i8, ptr %32, i64 %49
  tail call void @llvm.memcpy.p0.p0.i64(ptr align 1 %50, ptr align 1 %1, i64 %2, i1 false)
  br label %.loopexit

.loopexit:                                        ; preds = %.lr.ph, %.preheader, %48
  %51 = load i64, ptr %13, align 8, !tbaa !47
  %52 = add i64 %51, %2
  store i64 %52, ptr %13, align 8, !tbaa !47
  br label %53

53:                                               ; preds = %23, %.loopexit, %21
  %.0 = phi i64 [ -1, %21 ], [ %2, %.loopexit ], [ -1, %23 ]
  ret i64 %.0
}